target datalayout = "e-m:e-p270:32:32-p271:32:32-p272:64:64-i64:64-i128:128-f80:128-n8:16:32:64-S128"
target triple = "x86_64-pc-linux-gnu"

%struct.AVCodecTag = type { i32, i32 }
%struct.AVRational = type { i32, i32 }
%struct.AVStream = type { ptr, i32, i32, ptr, ptr, %struct.AVRational, i64, i64, i64, i32, i32, %struct.AVRational, ptr, %struct.AVRational, %struct.AVPacket, i32, %struct.AVRational, i32 }
%struct.AVPacket = type { ptr, i64, i64, ptr, i32, i32, i32, ptr, i32, i64, i64, ptr, ptr, %struct.AVRational }
%struct.AVCodecParameters = type { i32, i32, i32, ptr, i32, ptr, i32, i32, i64, i32, i32, i32, i32, i32, i32, %struct.AVRational, %struct.AVRational, i32, i32, i32, i32, i32, i32, i32, %struct.AVChannelLayout, i32, i32, i32, i32, i32, i32 }
%struct.AVChannelLayout = type { i32, i32, %union.anon, ptr }
%union.anon = type { i64 }

@ff_codec_bmp_tags = external constant [0 x %struct.AVCodecTag], align 4

; Function Attrs: nounwind uwtable
define internal i32 @parse_video_info(ptr noundef %0, ptr noundef %1, ptr noundef %2) #0 {
  %4 = alloca i32, align 4
  %5 = alloca ptr, align 8
  %6 = alloca ptr, align 8
  %7 = alloca ptr, align 8
  %8 = alloca i16, align 2
  %9 = alloca i32, align 4
  %10 = alloca i32, align 4
  %11 = alloca i32, align 4
  %12 = alloca i32, align 4
  store ptr %0, ptr %5, align 8, !tbaa !13
  store ptr %1, ptr %6, align 8, !tbaa !33
  store ptr %2, ptr %7, align 8, !tbaa !62
  call void @llvm.lifetime.start.p0(i64 2, ptr %8) #10
  call void @llvm.lifetime.start.p0(i64 4, ptr %9) #10
  call void @llvm.lifetime.start.p0(i64 4, ptr %10) #10
  %13 = load ptr, ptr %6, align 8, !tbaa !33
  %14 = call i32 @avio_rl32(ptr noundef %13)
  %15 = load ptr, ptr %7, align 8, !tbaa !62
  %16 = getelementptr inbounds nuw %struct.AVStream, ptr %15, i32 0, i32 3
  %17 = load ptr, ptr %16, align 8, !tbaa !153
  %18 = getelementptr inbounds nuw %struct.AVCodecParameters, ptr %17, i32 0, i32 13
  store i32 %14, ptr %18, align 8, !tbaa !179
  %19 = load ptr, ptr %6, align 8, !tbaa !33
  %20 = call i32 @avio_rl32(ptr noundef %19)
  %21 = load ptr, ptr %7, align 8, !tbaa !62
  %22 = getelementptr inbounds nuw %struct.AVStream, ptr %21, i32 0, i32 3
  %23 = load ptr, ptr %22, align 8, !tbaa !153
  %24 = getelementptr inbounds nuw %struct.AVCodecParameters, ptr %23, i32 0, i32 14
  store i32 %20, ptr %24, align 4, !tbaa !180
  %25 = load ptr, ptr %6, align 8, !tbaa !33
  %26 = call i64 @avio_skip(ptr noundef %25, i64 noundef 1)
  %27 = load ptr, ptr %6, align 8, !tbaa !33
  %28 = call i32 @avio_rl16(ptr noundef %27)
  %29 = trunc i32 %28 to i16
  store i16 %29, ptr %8, align 2, !tbaa !132
  %30 = load ptr, ptr %6, align 8, !tbaa !33
  %31 = load ptr, ptr %7, align 8, !tbaa !62
  %32 = call i32 @ff_get_bmp_header(ptr noundef %30, ptr noundef %31, ptr noundef %9)
  store i32 %32, ptr %10, align 4, !tbaa !42
  %33 = load i32, ptr %10, align 4, !tbaa !42
  %34 = load ptr, ptr %7, align 8, !tbaa !62
  %35 = getelementptr inbounds nuw %struct.AVStream, ptr %34, i32 0, i32 3
  %36 = load ptr, ptr %35, align 8, !tbaa !153
  %37 = getelementptr inbounds nuw %struct.AVCodecParameters, ptr %36, i32 0, i32 2
  store i32 %33, ptr %37, align 8, !tbaa !181
  %38 = load i32, ptr %10, align 4, !tbaa !42
  %39 = call i32 @ff_codec_get_id(ptr noundef @ff_codec_bmp_tags, i32 noundef %38)
  %40 = load ptr, ptr %7, align 8, !tbaa !62
  %41 = getelementptr inbounds nuw %struct.AVStream, ptr %40, i32 0, i32 3
  %42 = load ptr, ptr %41, align 8, !tbaa !153
  %43 = getelementptr inbounds nuw %struct.AVCodecParameters, ptr %42, i32 0, i32 1
  store i32 %39, ptr %43, align 4, !tbaa !182
  %44 = load i16, ptr %8, align 2, !tbaa !132
  %45 = zext i16 %44 to i32
  %46 = load i32, ptr %9, align 4, !tbaa !42
  %47 = icmp ugt i32 %45, %46
  br i1 %47, label %48, label %51

48:                                               ; preds = %3
  %49 = load i16, ptr %8, align 2, !tbaa !132
  %50 = zext i16 %49 to i32
  br label %53

51:                                               ; preds = %3
  %52 = load i32, ptr %9, align 4, !tbaa !42
  br label %53

53:                                               ; preds = %51, %48
  %54 = phi i32 [ %50, %48 ], [ %52, %51 ]
  store i32 %54, ptr %9, align 4, !tbaa !42
  %55 = load i32, ptr %9, align 4, !tbaa !42
  %56 = icmp ugt i32 %55, 40
  br i1 %56, label %57, label %74

57:                                               ; preds = %53
  call void @llvm.lifetime.start.p0(i64 4, ptr %11) #10
  %58 = load ptr, ptr %5, align 8, !tbaa !13
  %59 = load ptr, ptr %7, align 8, !tbaa !62
  %60 = getelementptr inbounds nuw %struct.AVStream, ptr %59, i32 0, i32 3
  %61 = load ptr, ptr %60, align 8, !tbaa !153
  %62 = load ptr, ptr %6, align 8, !tbaa !33
  %63 = load i32, ptr %9, align 4, !tbaa !42
  %64 = sub i32 %63, 40
  %65 = call i32 @ff_get_extradata(ptr noundef %58, ptr noundef %61, ptr noundef %62, i32 noundef %64)
  store i32 %65, ptr %11, align 4, !tbaa !42
  %66 = load i32, ptr %11, align 4, !tbaa !42
  %67 = icmp slt i32 %66, 0
  br i1 %67, label %68, label %70

68:                                               ; preds = %57
  %69 = load i32, ptr %11, align 4, !tbaa !42
  store i32 %69, ptr %4, align 4
  store i32 1, ptr %12, align 4
  br label %71

70:                                               ; preds = %57
  store i32 0, ptr %12, align 4
  br label %71

71:                                               ; preds = %70, %68
  call void @llvm.lifetime.end.p0(i64 4, ptr %11) #10
  %72 = load i32, ptr %12, align 4
  switch i32 %72, label %75 [
    i32 0, label %73
  ]

73:                                               ; preds = %71
  br label %74

74:                                               ; preds = %73, %53
  store i32 0, ptr %4, align 4
  store i32 1, ptr %12, align 4
  br label %75

75:                                               ; preds = %74, %71
  call void @llvm.lifetime.end.p0(i64 4, ptr %10) #10
  call void @llvm.lifetime.end.p0(i64 4, ptr %9) #10
  call void @llvm.lifetime.end.p0(i64 2, ptr %8) #10
  %76 = load i32, ptr %4, align 4
  ret i32 %76
}