; Function Attrs: nounwind uwtable
define internal fastcc range(i32 -2147483648, 1) i32 @parse_video_info(ptr noundef %0, ptr noundef %1, ptr noundef nonnull %2) unnamed_addr #1 {
  %4 = alloca i32, align 4
  call void @llvm.lifetime.start.p0(i64 4, ptr nonnull %4) #12
  %5 = tail call i32 @avio_rl32(ptr noundef %1) #12
  %6 = getelementptr inbounds nuw i8, ptr %2, i64 16
  %7 = load ptr, ptr %6, align 8, !tbaa !155
  %8 = getelementptr inbounds nuw i8, ptr %7, i64 72
  store i32 %5, ptr %8, align 8, !tbaa !175
  %9 = tail call i32 @avio_rl32(ptr noundef %1) #12
  %10 = load ptr, ptr %6, align 8, !tbaa !155
  %11 = getelementptr inbounds nuw i8, ptr %10, i64 76
  store i32 %9, ptr %11, align 4, !tbaa !176
  %12 = tail call i64 @avio_skip(ptr noundef %1, i64 noundef 1) #12
  %13 = tail call i32 @avio_rl16(ptr noundef %1) #12
  %14 = call i32 @ff_get_bmp_header(ptr noundef %1, ptr noundef nonnull %2, ptr noundef nonnull %4) #12
  %15 = load ptr, ptr %6, align 8, !tbaa !155
  %16 = getelementptr inbounds nuw i8, ptr %15, i64 8
  store i32 %14, ptr %16, align 8, !tbaa !177
  %17 = call i32 @ff_codec_get_id(ptr noundef nonnull @ff_codec_bmp_tags, i32 noundef %14) #12
  %18 = load ptr, ptr %6, align 8, !tbaa !155
  %19 = getelementptr inbounds nuw i8, ptr %18, i64 4
  store i32 %17, ptr %19, align 4, !tbaa !178
  %20 = and i32 %13, 65535
  %21 = load i32, ptr %4, align 4, !tbaa !179
  %22 = call i32 @llvm.umax.i32(i32 %20, i32 %21)
  store i32 %22, ptr %4, align 4, !tbaa !179
  %23 = icmp ugt i32 %22, 40
  br i1 %23, label %24, label %28

24:                                               ; preds = %3
  %25 = add i32 %22, -40
  %26 = call i32 @ff_get_extradata(ptr noundef %0, ptr noundef nonnull %18, ptr noundef %1, i32 noundef %25) #12
  %27 = icmp sgt i32 %26, -1
  br i1 %27, label %28, label %29

28:                                               ; preds = %24, %3
  br label %29

29:                                               ; preds = %24, %28
  %.1 = phi i32 [ 0, %28 ], [ %26, %24 ]
  call void @llvm.lifetime.end.p0(i64 4, ptr nonnull %4) #12
  ret i32 %.1
}